; ModuleID = '60/1681.c'
source_filename = "60/1681.c"
target datalayout = "e-m:e-p270:32:32-p271:32:32-p272:64:64-i64:64-f80:128-n8:16:32:64-S128"
target triple = "x86_64-pc-linux-gnu"

@.str = private unnamed_addr constant [3 x i8] c"%d\00", align 1
@.str.1 = private unnamed_addr constant [6 x i8] c"empty\00", align 1
@.str.2 = private unnamed_addr constant [7 x i8] c"%d %d\0A\00", align 1

; Function Attrs: noinline nounwind uwtable
define dso_local i32 @main() #0 {
  %1 = alloca i32, align 4
  %2 = alloca i32, align 4
  %3 = alloca i32, align 4
  %4 = alloca i32, align 4
  %5 = alloca i32, align 4
  %6 = alloca i32, align 4
  %7 = alloca [10000 x i32], align 16
  store i32 0, i32* %1, align 4
  store i32 0, i32* %5, align 4
  store i32 0, i32* %6, align 4
  %8 = call i32 (i8*, ...) @__isoc99_scanf(i8* getelementptr inbounds ([3 x i8], [3 x i8]* @.str, i64 0, i64 0), i32* %2)
  store i32 2, i32* %3, align 4
  br label %9

9:                                                ; preds = %40, %0
  %10 = load i32, i32* %3, align 4
  %11 = load i32, i32* %2, align 4
  %12 = icmp sle i32 %10, %11
  br i1 %12, label %13, label %43

13:                                               ; preds = %9
  store i32 2, i32* %4, align 4
  br label %14

14:                                               ; preds = %25, %13
  %15 = load i32, i32* %4, align 4
  %16 = load i32, i32* %3, align 4
  %17 = icmp sle i32 %15, %16
  br i1 %17, label %18, label %28

18:                                               ; preds = %14
  %19 = load i32, i32* %3, align 4
  %20 = load i32, i32* %4, align 4
  %21 = srem i32 %19, %20
  %22 = icmp eq i32 %21, 0
  br i1 %22, label %23, label %24

23:                                               ; preds = %18
  br label %28

24:                                               ; preds = %18
  br label %25

25:                                               ; preds = %24
  %26 = load i32, i32* %4, align 4
  %27 = add nsw i32 %26, 1
  store i32 %27, i32* %4, align 4
  br label %14

28:                                               ; preds = %23, %14
  %29 = load i32, i32* %4, align 4
  %30 = load i32, i32* %3, align 4
  %31 = icmp eq i32 %29, %30
  br i1 %31, label %32, label %39

32:                                               ; preds = %28
  %33 = load i32, i32* %3, align 4
  %34 = load i32, i32* %5, align 4
  %35 = sext i32 %34 to i64
  %36 = getelementptr inbounds [10000 x i32], [10000 x i32]* %7, i64 0, i64 %35
  store i32 %33, i32* %36, align 4
  %37 = load i32, i32* %5, align 4
  %38 = add nsw i32 %37, 1
  store i32 %38, i32* %5, align 4
  br label %39

39:                                               ; preds = %32, %28
  br label %40

40:                                               ; preds = %39
  %41 = load i32, i32* %3, align 4
  %42 = add nsw i32 %41, 1
  store i32 %42, i32* %3, align 4
  br label %9

43:                                               ; preds = %9
  %44 = load i32, i32* %5, align 4
  %45 = icmp slt i32 %44, 2
  br i1 %45, label %46, label %48

46:                                               ; preds = %43
  %47 = call i32 (i8*, ...) @printf(i8* getelementptr inbounds ([6 x i8], [6 x i8]* @.str.1, i64 0, i64 0))
  br label %88

48:                                               ; preds = %43
  store i32 1, i32* %3, align 4
  br label %49

49:                                               ; preds = %79, %48
  %50 = load i32, i32* %3, align 4
  %51 = load i32, i32* %5, align 4
  %52 = icmp slt i32 %50, %51
  br i1 %52, label %53, label %82

53:                                               ; preds = %49
  %54 = load i32, i32* %3, align 4
  %55 = sext i32 %54 to i64
  %56 = getelementptr inbounds [10000 x i32], [10000 x i32]* %7, i64 0, i64 %55
  %57 = load i32, i32* %56, align 4
  %58 = load i32, i32* %3, align 4
  %59 = sub nsw i32 %58, 1
  %60 = sext i32 %59 to i64
  %61 = getelementptr inbounds [10000 x i32], [10000 x i32]* %7, i64 0, i64 %60
  %62 = load i32, i32* %61, align 4
  %63 = sub nsw i32 %57, %62
  %64 = icmp eq i32 %63, 2
  br i1 %64, label %65, label %78

65:                                               ; preds = %53
  %66 = load i32, i32* %3, align 4
  %67 = sub nsw i32 %66, 1
  %68 = sext i32 %67 to i64
  %69 = getelementptr inbounds [10000 x i32], [10000 x i32]* %7, i64 0, i64 %68
  %70 = load i32, i32* %69, align 4
  %71 = load i32, i32* %3, align 4
  %72 = sext i32 %71 to i64
  %73 = getelementptr inbounds [10000 x i32], [10000 x i32]* %7, i64 0, i64 %72
  %74 = load i32, i32* %73, align 4
  %75 = call i32 (i8*, ...) @printf(i8* getelementptr inbounds ([7 x i8], [7 x i8]* @.str.2, i64 0, i64 0), i32 %70, i32 %74)
  %76 = load i32, i32* %6, align 4
  %77 = add nsw i32 %76, 1
  store i32 %77, i32* %6, align 4
  br label %78

78:                                               ; preds = %65, %53
  br label %79

79:                                               ; preds = %78
  %80 = load i32, i32* %3, align 4
  %81 = add nsw i32 %80, 1
  store i32 %81, i32* %3, align 4
  br label %49

82:                                               ; preds = %49
  %83 = load i32, i32* %6, align 4
  %84 = icmp eq i32 %83, 0
  br i1 %84, label %85, label %87

85:                                               ; preds = %82
  %86 = call i32 (i8*, ...) @printf(i8* getelementptr inbounds ([6 x i8], [6 x i8]* @.str.1, i64 0, i64 0))
  br label %87

87:                                               ; preds = %85, %82
  br label %88

88:                                               ; preds = %87, %46
  ret i32 0
}

declare dso_local i32 @__isoc99_scanf(i8*, ...) #1

declare dso_local i32 @printf(i8*, ...) #1


!llvm.module.flags = !{!0}
!llvm.ident = !{!1}

!0 = !{i32 1, !"wchar_size", i32 4}
!1 = !{!"clang version 10.0.0-4ubuntu1 "}
